Archive member included to satisfy reference by file (symbol)

/usr/local/Caskroom/gcc-arm-embedded/10-2020-q4-major/gcc-arm-none-eabi-10-2020-q4-major/bin/../lib/gcc/arm-none-eabi/10.2.1/libgcc.a(_udivsi3.o)
                              build/stdio.o (__aeabi_uidiv)
/usr/local/Caskroom/gcc-arm-embedded/10-2020-q4-major/gcc-arm-none-eabi-10-2020-q4-major/bin/../lib/gcc/arm-none-eabi/10.2.1/libgcc.a(_dvmd_tls.o)
                              /usr/local/Caskroom/gcc-arm-embedded/10-2020-q4-major/gcc-arm-none-eabi-10-2020-q4-major/bin/../lib/gcc/arm-none-eabi/10.2.1/libgcc.a(_udivsi3.o) (__aeabi_idiv0)

Memory Configuration

Name             Origin             Length             Attributes
*default*        0x0000000000000000 0xffffffffffffffff

Linker script and memory map

LOAD build/Entry.os
LOAD build/handler.o
LOAD build/main.o
LOAD build/interrupt.o
LOAD build/regs.o
LOAD build/timer.o
LOAD build/uart.o
LOAD build/armcpu.o
LOAD build/stdio.o
LOAD build/stdlib.o
LOAD /usr/local/Caskroom/gcc-arm-embedded/10-2020-q4-major/gcc-arm-none-eabi-10-2020-q4-major/bin/../lib/gcc/arm-none-eabi/10.2.1/libgcc.a
                0x0000000000000000                . = 0x0

.text           0x0000000000000000     0x1010
 *(vector_start)
 *(.text .rodata)
 .text          0x0000000000000000       0xd4 build/Entry.os
                0x0000000000000000                vector_start
 .text          0x00000000000000d4       0x24 build/handler.o
                0x00000000000000d4                IRQ_handler
                0x00000000000000f0                FIQ_handler
 .text          0x00000000000000f8      0x140 build/main.o
                0x00000000000000f8                main
 .rodata        0x0000000000000238       0xb0 build/main.o
 .text          0x00000000000002e8      0x2f8 build/interrupt.o
                0x00000000000002e8                HAL_interrupt_init
                0x0000000000000384                HAL_interrupt_enable
                0x0000000000000450                HAL_interrupt_disable
                0x0000000000000524                HAL_interrupt_register_handler
                0x000000000000055c                HAL_interrupt_run_handler
 .text          0x00000000000005e0        0x0 build/regs.o
 .text          0x00000000000005e0      0x210 build/timer.o
                0x00000000000005e0                HAL_timer_init
                0x0000000000000784                HAL_timer_get_1ms_counter
 .text          0x00000000000007f0      0x1b0 build/uart.o
                0x00000000000007f0                HAL_uart_init
                0x0000000000000890                HAL_uart_put_char
                0x00000000000008ec                HAL_uart_get_char
 .text          0x00000000000009a0       0xb0 build/armcpu.o
                0x00000000000009a0                enable_irq
                0x00000000000009cc                enable_fiq
                0x00000000000009f8                disable_irq
                0x0000000000000a24                disable_fiq
 .text          0x0000000000000a50      0x454 build/stdio.o
                0x0000000000000a50                putstr
                0x0000000000000ab0                debug_printf
                0x0000000000000b00                vsprintf
                0x0000000000000d80                utoa
 .rodata        0x0000000000000ea4        0x7 build/stdio.o
 *fill*         0x0000000000000eab        0x1 
 .text          0x0000000000000eac       0x4c build/stdlib.o
                0x0000000000000eac                delay
 .text          0x0000000000000ef8      0x114 /usr/local/Caskroom/gcc-arm-embedded/10-2020-q4-major/gcc-arm-none-eabi-10-2020-q4-major/bin/../lib/gcc/arm-none-eabi/10.2.1/libgcc.a(_udivsi3.o)
                0x0000000000000ef8                __udivsi3
                0x0000000000000ef8                __aeabi_uidiv
                0x0000000000000fec                __aeabi_uidivmod
 .text          0x000000000000100c        0x4 /usr/local/Caskroom/gcc-arm-embedded/10-2020-q4-major/gcc-arm-none-eabi-10-2020-q4-major/bin/../lib/gcc/arm-none-eabi/10.2.1/libgcc.a(_dvmd_tls.o)
                0x000000000000100c                __aeabi_ldiv0
                0x000000000000100c                __aeabi_idiv0

.glue_7         0x0000000000001010        0x0
 .glue_7        0x0000000000001010        0x0 linker stubs

.glue_7t        0x0000000000001010        0x0
 .glue_7t       0x0000000000001010        0x0 linker stubs

.vfp11_veneer   0x0000000000001010        0x0
 .vfp11_veneer  0x0000000000001010        0x0 linker stubs

.v4_bx          0x0000000000001010        0x0
 .v4_bx         0x0000000000001010        0x0 linker stubs

.iplt           0x0000000000001010        0x0
 .iplt          0x0000000000001010        0x0 build/Entry.os

.rel.dyn        0x0000000000001010        0x0
 .rel.iplt      0x0000000000001010        0x0 build/Entry.os

.data           0x0000000000001010       0x10
 *(.data)
 .data          0x0000000000001010        0x0 build/Entry.os
 .data          0x0000000000001010        0x0 build/handler.o
 .data          0x0000000000001010        0x0 build/main.o
 .data          0x0000000000001010        0x0 build/interrupt.o
 .data          0x0000000000001010       0x10 build/regs.o
                0x0000000000001010                Uart
                0x0000000000001014                GicCpu
                0x0000000000001018                GicDist
                0x000000000000101c                Timer
 .data          0x0000000000001020        0x0 build/timer.o
 .data          0x0000000000001020        0x0 build/uart.o
 .data          0x0000000000001020        0x0 build/armcpu.o
 .data          0x0000000000001020        0x0 build/stdio.o
 .data          0x0000000000001020        0x0 build/stdlib.o
 .data          0x0000000000001020        0x0 /usr/local/Caskroom/gcc-arm-embedded/10-2020-q4-major/gcc-arm-none-eabi-10-2020-q4-major/bin/../lib/gcc/arm-none-eabi/10.2.1/libgcc.a(_udivsi3.o)
 .data          0x0000000000001020        0x0 /usr/local/Caskroom/gcc-arm-embedded/10-2020-q4-major/gcc-arm-none-eabi-10-2020-q4-major/bin/../lib/gcc/arm-none-eabi/10.2.1/libgcc.a(_dvmd_tls.o)

.igot.plt       0x0000000000001020        0x0
 .igot.plt      0x0000000000001020        0x0 build/Entry.os

.bss            0x0000000000001020      0xc00
 *(.bss)
 .bss           0x0000000000001020        0x0 build/Entry.os
 .bss           0x0000000000001020        0x0 build/handler.o
 .bss           0x0000000000001020      0x400 build/main.o
 .bss           0x0000000000001420      0x3fc build/interrupt.o
 .bss           0x000000000000181c        0x0 build/regs.o
 .bss           0x000000000000181c        0x4 build/timer.o
 .bss           0x0000000000001820        0x0 build/uart.o
 .bss           0x0000000000001820        0x0 build/armcpu.o
 .bss           0x0000000000001820      0x400 build/stdio.o
 .bss           0x0000000000001c20        0x0 build/stdlib.o
 .bss           0x0000000000001c20        0x0 /usr/local/Caskroom/gcc-arm-embedded/10-2020-q4-major/gcc-arm-none-eabi-10-2020-q4-major/bin/../lib/gcc/arm-none-eabi/10.2.1/libgcc.a(_udivsi3.o)
 .bss           0x0000000000001c20        0x0 /usr/local/Caskroom/gcc-arm-embedded/10-2020-q4-major/gcc-arm-none-eabi-10-2020-q4-major/bin/../lib/gcc/arm-none-eabi/10.2.1/libgcc.a(_dvmd_tls.o)
OUTPUT(build/navilos.axf elf32-littlearm)
LOAD linker stubs

.ARM.attributes
                0x0000000000000000       0x2b
 .ARM.attributes
                0x0000000000000000       0x1d build/Entry.os
 .ARM.attributes
                0x000000000000001d       0x2f build/handler.o
 .ARM.attributes
                0x000000000000004c       0x2f build/main.o
 .ARM.attributes
                0x000000000000007b       0x2f build/interrupt.o
 .ARM.attributes
                0x00000000000000aa       0x2f build/regs.o
 .ARM.attributes
                0x00000000000000d9       0x2f build/timer.o
 .ARM.attributes
                0x0000000000000108       0x2f build/uart.o
 .ARM.attributes
                0x0000000000000137       0x2f build/armcpu.o
 .ARM.attributes
                0x0000000000000166       0x2f build/stdio.o
 .ARM.attributes
                0x0000000000000195       0x2f build/stdlib.o
 .ARM.attributes
                0x00000000000001c4       0x1c /usr/local/Caskroom/gcc-arm-embedded/10-2020-q4-major/gcc-arm-none-eabi-10-2020-q4-major/bin/../lib/gcc/arm-none-eabi/10.2.1/libgcc.a(_udivsi3.o)
 .ARM.attributes
                0x00000000000001e0       0x1c /usr/local/Caskroom/gcc-arm-embedded/10-2020-q4-major/gcc-arm-none-eabi-10-2020-q4-major/bin/../lib/gcc/arm-none-eabi/10.2.1/libgcc.a(_dvmd_tls.o)

.comment        0x0000000000000000       0x4d
 .comment       0x0000000000000000       0x4d build/handler.o
                                         0x4e (size before relaxing)
 .comment       0x000000000000004d       0x4e build/main.o
 .comment       0x000000000000004d       0x4e build/interrupt.o
 .comment       0x000000000000004d       0x4e build/regs.o
 .comment       0x000000000000004d       0x4e build/timer.o
 .comment       0x000000000000004d       0x4e build/uart.o
 .comment       0x000000000000004d       0x4e build/armcpu.o
 .comment       0x000000000000004d       0x4e build/stdio.o
 .comment       0x000000000000004d       0x4e build/stdlib.o

.debug_line     0x0000000000000000      0x705
 .debug_line    0x0000000000000000       0x6d build/Entry.os
 .debug_line    0x000000000000006d       0x4e build/handler.o
 .debug_line    0x00000000000000bb       0xb1 build/main.o
 .debug_line    0x000000000000016c      0x11e build/interrupt.o
 .debug_line    0x000000000000028a       0x68 build/regs.o
 .debug_line    0x00000000000002f2       0xdc build/timer.o
 .debug_line    0x00000000000003ce       0xe8 build/uart.o
 .debug_line    0x00000000000004b6       0x69 build/armcpu.o
 .debug_line    0x000000000000051f      0x17c build/stdio.o
 .debug_line    0x000000000000069b       0x6a build/stdlib.o

.debug_info     0x0000000000000000     0x2c90
 .debug_info    0x0000000000000000       0x26 build/Entry.os
 .debug_info    0x0000000000000026       0x74 build/handler.o
 .debug_info    0x000000000000009a      0x116 build/main.o
 .debug_info    0x00000000000001b0      0x683 build/interrupt.o
 .debug_info    0x0000000000000833     0x123f build/regs.o
 .debug_info    0x0000000000001a72      0x2b8 build/timer.o
 .debug_info    0x0000000000001d2a      0xbbe build/uart.o
 .debug_info    0x00000000000028e8       0x6e build/armcpu.o
 .debug_info    0x0000000000002956      0x2ae build/stdio.o
 .debug_info    0x0000000000002c04       0x8c build/stdlib.o

.debug_abbrev   0x0000000000000000      0x88d
 .debug_abbrev  0x0000000000000000       0x14 build/Entry.os
 .debug_abbrev  0x0000000000000014       0x5e build/handler.o
 .debug_abbrev  0x0000000000000072       0xc2 build/main.o
 .debug_abbrev  0x0000000000000134      0x19c build/interrupt.o
 .debug_abbrev  0x00000000000002d0      0x11a build/regs.o
 .debug_abbrev  0x00000000000003ea      0x132 build/timer.o
 .debug_abbrev  0x000000000000051c      0x19d build/uart.o
 .debug_abbrev  0x00000000000006b9       0x2e build/armcpu.o
 .debug_abbrev  0x00000000000006e7      0x131 build/stdio.o
 .debug_abbrev  0x0000000000000818       0x75 build/stdlib.o

.debug_aranges  0x0000000000000000      0x138
 .debug_aranges
                0x0000000000000000       0x20 build/Entry.os
 .debug_aranges
                0x0000000000000020       0x20 build/handler.o
 .debug_aranges
                0x0000000000000040       0x20 build/main.o
 .debug_aranges
                0x0000000000000060       0x20 build/interrupt.o
 .debug_aranges
                0x0000000000000080       0x18 build/regs.o
 .debug_aranges
                0x0000000000000098       0x20 build/timer.o
 .debug_aranges
                0x00000000000000b8       0x20 build/uart.o
 .debug_aranges
                0x00000000000000d8       0x20 build/armcpu.o
 .debug_aranges
                0x00000000000000f8       0x20 build/stdio.o
 .debug_aranges
                0x0000000000000118       0x20 build/stdlib.o

.debug_str      0x0000000000000000      0x953
 .debug_str     0x0000000000000000       0x69 build/Entry.os
 .debug_str     0x0000000000000069       0xb6 build/handler.o
                                        0x11d (size before relaxing)
 .debug_str     0x000000000000011f       0x4c build/main.o
                                        0x147 (size before relaxing)
 .debug_str     0x000000000000016b      0x2b3 build/interrupt.o
                                        0x3c1 (size before relaxing)
 .debug_str     0x000000000000041e      0x3b4 build/regs.o
                                        0x6b2 (size before relaxing)
 .debug_str     0x00000000000007d2       0x6e build/timer.o
                                        0x263 (size before relaxing)
 .debug_str     0x0000000000000840       0x4f build/uart.o
                                        0x452 (size before relaxing)
 .debug_str     0x000000000000088f       0x3b build/armcpu.o
                                         0xef (size before relaxing)
 .debug_str     0x00000000000008ca       0x71 build/stdio.o
                                        0x195 (size before relaxing)
 .debug_str     0x000000000000093b       0x18 build/stdlib.o
                                        0x117 (size before relaxing)

.debug_frame    0x0000000000000000      0x40c
 .debug_frame   0x0000000000000000       0x50 build/handler.o
 .debug_frame   0x0000000000000050       0x84 build/main.o
 .debug_frame   0x00000000000000d4       0xb0 build/interrupt.o
 .debug_frame   0x0000000000000184       0x70 build/timer.o
 .debug_frame   0x00000000000001f4       0x8c build/uart.o
 .debug_frame   0x0000000000000280       0x90 build/armcpu.o
 .debug_frame   0x0000000000000310       0xac build/stdio.o
 .debug_frame   0x00000000000003bc       0x30 build/stdlib.o
 .debug_frame   0x00000000000003ec       0x20 /usr/local/Caskroom/gcc-arm-embedded/10-2020-q4-major/gcc-arm-none-eabi-10-2020-q4-major/bin/../lib/gcc/arm-none-eabi/10.2.1/libgcc.a(_udivsi3.o)
